target datalayout = "e-m:e-p270:32:32-p271:32:32-p272:64:64-i64:64-i128:128-f80:128-n8:16:32:64-S128"
target triple = "x86_64-pc-linux-gnu"

%class.btSpinMutex = type { i32 }
%class.btDiscreteDynamicsWorld = type <{ %class.btDynamicsWorld, %class.btAlignedObjectArray.12, ptr, ptr, ptr, %class.btAlignedObjectArray.12, %class.btAlignedObjectArray.14, %class.btVector3, float, float, i8, i8, i8, i8, [4 x i8], %class.btAlignedObjectArray.16, i32, i8, [3 x i8], %class.btAlignedObjectArray.18, %class.btSpinMutex, [4 x i8] }>
%class.btDynamicsWorld = type { %class.btCollisionWorld.base, ptr, ptr, ptr, %struct.btContactSolverInfo }
%class.btCollisionWorld.base = type <{ ptr, %class.btAlignedObjectArray.10, ptr, %struct.btDispatcherInfo, ptr, ptr, i8 }>
%class.btAlignedObjectArray.10 = type <{ [4 x i8], i32, i32, [4 x i8], ptr, i8, [7 x i8] }>
%struct.btDispatcherInfo = type <{ float, i32, i32, float, i8, [7 x i8], ptr, i8, i8, i8, i8, float, i8, [3 x i8], float, i8, [7 x i8] }>
%struct.btContactSolverInfo = type { %struct.btContactSolverInfoData }
%struct.btContactSolverInfoData = type { float, float, float, float, float, i32, float, float, float, float, float, float, float, float, float, float, i32, float, float, float, float, float, i32, i32, i32, float, float, float, float, i8, i8, i32, i32 }
%class.btAlignedObjectArray.12 = type <{ [4 x i8], i32, i32, [4 x i8], ptr, i8, [7 x i8] }>
%class.btAlignedObjectArray.14 = type <{ [4 x i8], i32, i32, [4 x i8], ptr, i8, [7 x i8] }>
%class.btVector3 = type { [4 x float] }
%class.btAlignedObjectArray.16 = type <{ [4 x i8], i32, i32, [4 x i8], ptr, i8, [7 x i8] }>
%class.btAlignedObjectArray.18 = type <{ [4 x i8], i32, i32, [4 x i8], ptr, i8, [7 x i8] }>
%class.CProfileSample = type { i8 }
%class.btIParallelForBody = type { ptr }
%"struct.btDiscreteDynamicsWorldMt::UpdaterIntegrateTransforms" = type { %class.btIParallelForBody, float, ptr, ptr }

@.str.3 = private unnamed_addr constant [20 x i8] c"integrateTransforms\00", align 1
@_ZTV18btIParallelForBody = linkonce_odr dso_local unnamed_addr constant { [5 x ptr] } { [5 x ptr] [ptr null, ptr @_ZTI18btIParallelForBody, ptr @_ZN18btIParallelForBodyD2Ev, ptr @_ZN18btIParallelForBodyD0Ev, ptr @__cxa_pure_virtual] }, comdat, align 8

; Function Attrs: inlinehint mustprogress nounwind uwtable
define linkonce_odr dso_local void @_ZN18btIParallelForBodyC2Ev(ptr noundef nonnull align 8 dereferenceable(8) %0) unnamed_addr #4 comdat align 2 {
  %2 = alloca ptr, align 8
  store ptr %0, ptr %2, align 8, !tbaa !152
  %3 = load ptr, ptr %2, align 8
  store ptr getelementptr inbounds inrange(-16, 24) ({ [5 x ptr] }, ptr @_ZTV18btIParallelForBody, i32 0, i32 0, i32 2), ptr %3, align 8, !tbaa !37
  ret void
}

; Function Attrs: mustprogress nounwind uwtable
define linkonce_odr dso_local void @_ZN18btIParallelForBodyD2Ev(ptr noundef nonnull align 8 dereferenceable(8) %0) unnamed_addr #1 comdat align 2 {
  %2 = alloca ptr, align 8
  store ptr %0, ptr %2, align 8, !tbaa !152
  ret void
}

; Function Attrs: inlinehint mustprogress nounwind uwtable
define linkonce_odr dso_local noundef nonnull align 8 dereferenceable(8) ptr @_ZN20btAlignedObjectArrayIP11btRigidBodyEixEi(ptr noundef nonnull align 8 dereferenceable(25) %0, i32 noundef %1) #4 comdat align 2 {
  %3 = alloca ptr, align 8
  %4 = alloca i32, align 4
  store ptr %0, ptr %3, align 8, !tbaa !134
  store i32 %1, ptr %4, align 4, !tbaa !9
  %5 = load ptr, ptr %3, align 8
  %6 = getelementptr inbounds nuw %class.btAlignedObjectArray.14, ptr %5, i32 0, i32 4
  %7 = load ptr, ptr %6, align 8, !tbaa !139
  %8 = load i32, ptr %4, align 4, !tbaa !9
  %9 = sext i32 %8 to i64
  %10 = getelementptr inbounds ptr, ptr %7, i64 %9
  ret ptr %10
}

; Function Attrs: inlinehint mustprogress nounwind uwtable
define linkonce_odr dso_local void @_ZN25btDiscreteDynamicsWorldMt26UpdaterIntegrateTransformsC2Ev(ptr noundef nonnull align 8 dereferenceable(32) %0) unnamed_addr #4 comdat align 2 {
  %2 = alloca ptr, align 8
  store ptr %0, ptr %2, align 8, !tbaa !150
  %3 = load ptr, ptr %2, align 8
  call void @_ZN18btIParallelForBodyC2Ev(ptr noundef nonnull align 8 dereferenceable(8) %3) #13
  store ptr getelementptr inbounds inrange(-16, 24) ({ [5 x ptr] }, ptr @_ZTVN25btDiscreteDynamicsWorldMt26UpdaterIntegrateTransformsE, i32 0, i32 0, i32 2), ptr %3, align 8, !tbaa !37
  ret void
}

; Function Attrs: inlinehint mustprogress nounwind uwtable
define linkonce_odr dso_local noundef i32 @_ZNK20btAlignedObjectArrayIP11btRigidBodyE4sizeEv(ptr noundef nonnull align 8 dereferenceable(25) %0) #4 comdat align 2 {
  %2 = alloca ptr, align 8
  store ptr %0, ptr %2, align 8, !tbaa !134
  %3 = load ptr, ptr %2, align 8
  %4 = getelementptr inbounds nuw %class.btAlignedObjectArray.14, ptr %3, i32 0, i32 1
  %5 = load i32, ptr %4, align 4, !tbaa !136
  ret i32 %5
}

; Function Attrs: mustprogress uwtable
define dso_local void @_ZN25btDiscreteDynamicsWorldMt19integrateTransformsEf(ptr noundef nonnull align 8 dereferenceable(520) %0, float noundef %1) unnamed_addr #2 align 2 personality ptr @__gxx_personality_v0 {
  %3 = alloca ptr, align 8
  %4 = alloca float, align 4
  %5 = alloca %class.CProfileSample, align 1
  %6 = alloca ptr, align 8
  %7 = alloca i32, align 4
  %8 = alloca %"struct.btDiscreteDynamicsWorldMt::UpdaterIntegrateTransforms", align 8
  %9 = alloca i32, align 4
  store ptr %0, ptr %3, align 8, !tbaa !68
  store float %1, ptr %4, align 4, !tbaa !129
  %10 = load ptr, ptr %3, align 8
  call void @llvm.lifetime.start.p0(i64 1, ptr %5) #13
  call void @_ZN14CProfileSampleC1EPKc(ptr noundef nonnull align 1 dereferenceable(1) %5, ptr noundef @.str.3)
  %11 = getelementptr inbounds nuw %class.btDiscreteDynamicsWorld, ptr %10, i32 0, i32 6
  %12 = invoke noundef i32 @_ZNK20btAlignedObjectArrayIP11btRigidBodyE4sizeEv(ptr noundef nonnull align 8 dereferenceable(25) %11)
          to label %13 unwind label %28

13:                                               ; preds = %2
  %14 = icmp sgt i32 %12, 0
  br i1 %14, label %15, label %41

15:                                               ; preds = %13
  call void @llvm.lifetime.start.p0(i64 32, ptr %8) #13
  call void @_ZN25btDiscreteDynamicsWorldMt26UpdaterIntegrateTransformsC2Ev(ptr noundef nonnull align 8 dereferenceable(32) %8) #13
  %16 = getelementptr inbounds nuw %"struct.btDiscreteDynamicsWorldMt::UpdaterIntegrateTransforms", ptr %8, i32 0, i32 3
  store ptr %10, ptr %16, align 8, !tbaa !146
  %17 = load float, ptr %4, align 4, !tbaa !129
  %18 = getelementptr inbounds nuw %"struct.btDiscreteDynamicsWorldMt::UpdaterIntegrateTransforms", ptr %8, i32 0, i32 1
  store float %17, ptr %18, align 8, !tbaa !148
  %19 = getelementptr inbounds nuw %class.btDiscreteDynamicsWorld, ptr %10, i32 0, i32 6
  %20 = invoke noundef nonnull align 8 dereferenceable(8) ptr @_ZN20btAlignedObjectArrayIP11btRigidBodyEixEi(ptr noundef nonnull align 8 dereferenceable(25) %19, i32 noundef 0)
          to label %21 unwind label %32

21:                                               ; preds = %15
  %22 = getelementptr inbounds nuw %"struct.btDiscreteDynamicsWorldMt::UpdaterIntegrateTransforms", ptr %8, i32 0, i32 2
  store ptr %20, ptr %22, align 8, !tbaa !149
  call void @llvm.lifetime.start.p0(i64 4, ptr %9) #13
  store i32 50, ptr %9, align 4, !tbaa !9
  %23 = getelementptr inbounds nuw %class.btDiscreteDynamicsWorld, ptr %10, i32 0, i32 6
  %24 = invoke noundef i32 @_ZNK20btAlignedObjectArrayIP11btRigidBodyE4sizeEv(ptr noundef nonnull align 8 dereferenceable(25) %23)
          to label %25 unwind label %36

25:                                               ; preds = %21
  %26 = load i32, ptr %9, align 4, !tbaa !9
  invoke void @_Z13btParallelForiiiRK18btIParallelForBody(i32 noundef 0, i32 noundef %24, i32 noundef %26, ptr noundef nonnull align 8 dereferenceable(8) %8)
          to label %27 unwind label %36

27:                                               ; preds = %25
  call void @llvm.lifetime.end.p0(i64 4, ptr %9) #13
  call void @_ZN18btIParallelForBodyD2Ev(ptr noundef nonnull align 8 dereferenceable(32) %8) #13
  call void @llvm.lifetime.end.p0(i64 32, ptr %8) #13
  br label %41

28:                                               ; preds = %2
  %29 = landingpad { ptr, i32 }
          cleanup
  %30 = extractvalue { ptr, i32 } %29, 0
  store ptr %30, ptr %6, align 8
  %31 = extractvalue { ptr, i32 } %29, 1
  store i32 %31, ptr %7, align 4
  br label %42

32:                                               ; preds = %15
  %33 = landingpad { ptr, i32 }
          cleanup
  %34 = extractvalue { ptr, i32 } %33, 0
  store ptr %34, ptr %6, align 8
  %35 = extractvalue { ptr, i32 } %33, 1
  store i32 %35, ptr %7, align 4
  br label %40

36:                                               ; preds = %25, %21
  %37 = landingpad { ptr, i32 }
          cleanup
  %38 = extractvalue { ptr, i32 } %37, 0
  store ptr %38, ptr %6, align 8
  %39 = extractvalue { ptr, i32 } %37, 1
  store i32 %39, ptr %7, align 4
  call void @llvm.lifetime.end.p0(i64 4, ptr %9) #13
  br label %40

40:                                               ; preds = %36, %32
  call void @_ZN18btIParallelForBodyD2Ev(ptr noundef nonnull align 8 dereferenceable(32) %8) #13
  call void @llvm.lifetime.end.p0(i64 32, ptr %8) #13
  br label %42

41:                                               ; preds = %27, %13
  call void @_ZN14CProfileSampleD1Ev(ptr noundef nonnull align 1 dereferenceable(1) %5) #13
  call void @llvm.lifetime.end.p0(i64 1, ptr %5) #13
  ret void

42:                                               ; preds = %40, %28
  call void @_ZN14CProfileSampleD1Ev(ptr noundef nonnull align 1 dereferenceable(1) %5) #13
  call void @llvm.lifetime.end.p0(i64 1, ptr %5) #13
  br label %43

43:                                               ; preds = %42
  %44 = load ptr, ptr %6, align 8
  %45 = load i32, ptr %7, align 4
  %46 = insertvalue { ptr, i32 } poison, ptr %44, 0
  %47 = insertvalue { ptr, i32 } %46, i32 %45, 1
  resume { ptr, i32 } %47
}