; Function Attrs: mustprogress uwtable
define dso_local void @_ZN25btDiscreteDynamicsWorldMt19integrateTransformsEf(ptr noundef nonnull align 8 dereferenceable(520) %0, float noundef %1) unnamed_addr #0 align 2 personality ptr @__gxx_personality_v0 {
  %3 = alloca %class.CProfileSample, align 1
  %4 = alloca %"struct.btDiscreteDynamicsWorldMt::UpdaterIntegrateTransforms", align 8
  call void @llvm.lifetime.start.p0(i64 1, ptr nonnull %3) #11
  call void @_ZN14CProfileSampleC1EPKc(ptr noundef nonnull align 1 dereferenceable(1) %3, ptr noundef nonnull @.str.3)
  %5 = getelementptr inbounds nuw i8, ptr %0, i64 372
  %6 = load i32, ptr %5, align 4, !tbaa !102
  %7 = icmp sgt i32 %6, 0
  br i1 %7, label %8, label %17

8:                                                ; preds = %2
  call void @llvm.lifetime.start.p0(i64 32, ptr nonnull %4) #11
  store ptr getelementptr inbounds nuw inrange(-16, 24) (i8, ptr @_ZTVN25btDiscreteDynamicsWorldMt26UpdaterIntegrateTransformsE, i64 16), ptr %4, align 8, !tbaa !34
  %9 = getelementptr inbounds nuw i8, ptr %4, i64 24
  store ptr %0, ptr %9, align 8, !tbaa !113
  %10 = getelementptr inbounds nuw i8, ptr %4, i64 8
  store float %1, ptr %10, align 8, !tbaa !115
  %11 = getelementptr inbounds nuw i8, ptr %0, i64 384
  %12 = load ptr, ptr %11, align 8, !tbaa !106
  %13 = getelementptr inbounds nuw i8, ptr %4, i64 16
  store ptr %12, ptr %13, align 8, !tbaa !116
  invoke void @_Z13btParallelForiiiRK18btIParallelForBody(i32 noundef 0, i32 noundef %6, i32 noundef 50, ptr noundef nonnull align 8 dereferenceable(8) %4)
          to label %14 unwind label %15

14:                                               ; preds = %8
  call void @llvm.lifetime.end.p0(i64 32, ptr nonnull %4) #11
  br label %17

15:                                               ; preds = %8
  %16 = landingpad { ptr, i32 }
          cleanup
  call void @llvm.lifetime.end.p0(i64 32, ptr nonnull %4) #11
  call void @_ZN14CProfileSampleD1Ev(ptr noundef nonnull align 1 dereferenceable(1) %3) #11
  call void @llvm.lifetime.end.p0(i64 1, ptr nonnull %3) #11
  resume { ptr, i32 } %16

17:                                               ; preds = %14, %2
  call void @_ZN14CProfileSampleD1Ev(ptr noundef nonnull align 1 dereferenceable(1) %3) #11
  call void @llvm.lifetime.end.p0(i64 1, ptr nonnull %3) #11
  ret void
}